target datalayout = "e-m:e-p270:32:32-p271:32:32-p272:64:64-i64:64-i128:128-f80:128-n8:16:32:64-S128"
target triple = "x86_64-pc-linux-gnu"

%"class.std::basic_string_view" = type { i64, ptr }
%"class.std::vector" = type { %"struct.std::_Vector_base" }
%"struct.std::_Vector_base" = type { %"struct.std::_Vector_base<std::basic_string_view<char>, std::allocator<std::basic_string_view<char>>>::_Vector_impl" }
%"struct.std::_Vector_base<std::basic_string_view<char>, std::allocator<std::basic_string_view<char>>>::_Vector_impl" = type { %"struct.std::_Vector_base<std::basic_string_view<char>, std::allocator<std::basic_string_view<char>>>::_Vector_impl_data" }
%"struct.std::_Vector_base<std::basic_string_view<char>, std::allocator<std::basic_string_view<char>>>::_Vector_impl_data" = type { ptr, ptr, ptr }
%"struct.grpc_core::EvaluateArgs::PerChannelArgs::Address" = type <{ %struct.grpc_resolved_address, [4 x i8], %"class.std::__cxx11::basic_string", i32, [4 x i8] }>
%struct.grpc_resolved_address = type { [128 x i8], i32 }
%"class.std::__cxx11::basic_string" = type { %"struct.std::__cxx11::basic_string<char>::_Alloc_hider", i64, %union.anon }
%"struct.std::__cxx11::basic_string<char>::_Alloc_hider" = type { ptr }
%union.anon = type { i64, [8 x i8] }
%"struct.grpc_core::EvaluateArgs::PerChannelArgs" = type { %"class.std::basic_string_view", %"class.std::basic_string_view", %"class.std::vector", %"class.std::vector", %"class.std::basic_string_view", %"class.std::basic_string_view", %"struct.grpc_core::EvaluateArgs::PerChannelArgs::Address", %"struct.grpc_core::EvaluateArgs::PerChannelArgs::Address" }
%"class.grpc_core::EvaluateArgs" = type { ptr, ptr }

; Function Attrs: mustprogress nounwind uwtable
define void @_ZNK9grpc_core12EvaluateArgs15GetLocalAddressEv(ptr dead_on_unwind noalias writable sret(%struct.grpc_resolved_address) align 4 %0, ptr noundef nonnull align 8 dereferenceable(16) %1) #5 align 2 {
  %3 = alloca ptr, align 8
  store ptr %1, ptr %3, align 8, !tbaa !42
  %4 = load ptr, ptr %3, align 8
  %5 = getelementptr inbounds nuw %"class.grpc_core::EvaluateArgs", ptr %4, i32 0, i32 1
  %6 = load ptr, ptr %5, align 8, !tbaa !65
  %7 = icmp eq ptr %6, null
  br i1 %7, label %8, label %9

8:                                                ; preds = %2
  call void @llvm.memset.p0.i64(ptr align 4 %0, i8 0, i64 132, i1 false)
  br label %14

9:                                                ; preds = %2
  %10 = getelementptr inbounds nuw %"class.grpc_core::EvaluateArgs", ptr %4, i32 0, i32 1
  %11 = load ptr, ptr %10, align 8, !tbaa !65
  %12 = getelementptr inbounds nuw %"struct.grpc_core::EvaluateArgs::PerChannelArgs", ptr %11, i32 0, i32 6
  %13 = getelementptr inbounds nuw %"struct.grpc_core::EvaluateArgs::PerChannelArgs::Address", ptr %12, i32 0, i32 0
  call void @llvm.memcpy.p0.p0.i64(ptr align 4 %0, ptr align 8 %13, i64 132, i1 false), !tbaa.struct !38
  br label %14

14:                                               ; preds = %9, %8
  ret void
}