; Function Attrs: mustprogress nofree norecurse nosync nounwind willreturn memory(readwrite, inaccessiblemem: none) uwtable
define void @_ZNK9grpc_core12EvaluateArgs15GetLocalAddressEv(ptr dead_on_unwind noalias writable writeonly sret(%struct.grpc_resolved_address) align 4 captures(none) initializes((0, 132)) %0, ptr noundef nonnull readonly align 8 captures(none) dereferenceable(16) %1) local_unnamed_addr #7 align 2 {
  %3 = getelementptr inbounds nuw i8, ptr %1, i64 8
  %4 = load ptr, ptr %3, align 8, !tbaa !52
  %5 = icmp eq ptr %4, null
  br i1 %5, label %6, label %7

6:                                                ; preds = %2
  tail call void @llvm.memset.p0.i64(ptr noundef nonnull align 4 dereferenceable(132) %0, i8 0, i64 132, i1 false)
  br label %9

7:                                                ; preds = %2
  %8 = getelementptr inbounds nuw i8, ptr %4, i64 112
  tail call void @llvm.memcpy.p0.p0.i64(ptr noundef nonnull align 4 dereferenceable(132) %0, ptr noundef nonnull align 8 dereferenceable(132) %8, i64 132, i1 false), !tbaa.struct !29
  br label %9

9:                                                ; preds = %7, %6
  ret void
}